target datalayout = "e-m:e-p270:32:32-p271:32:32-p272:64:64-i64:64-i128:128-f80:128-n8:16:32:64-S128"
target triple = "x86_64-pc-linux-gnu"

%struct.bignum_st = type { ptr, i32, i32, i32, i32 }

@.str = private unnamed_addr constant [30 x i8] c"../openssl/crypto/bn/bn_mod.c\00", align 1

; Function Attrs: nounwind uwtable
define i32 @bn_mod_add_fixed_top(ptr noundef %0, ptr noundef %1, ptr noundef %2, ptr noundef %3) #0 {
  %5 = alloca i32, align 4
  %6 = alloca ptr, align 8
  %7 = alloca ptr, align 8
  %8 = alloca ptr, align 8
  %9 = alloca ptr, align 8
  %10 = alloca i64, align 8
  %11 = alloca i64, align 8
  %12 = alloca i64, align 8
  %13 = alloca i64, align 8
  %14 = alloca [16 x i64], align 16
  %15 = alloca i64, align 8
  %16 = alloca i64, align 8
  %17 = alloca i64, align 8
  %18 = alloca ptr, align 8
  %19 = alloca ptr, align 8
  %20 = alloca ptr, align 8
  %21 = alloca ptr, align 8
  %22 = alloca i32, align 4
  store ptr %0, ptr %6, align 8, !tbaa !3
  store ptr %1, ptr %7, align 8, !tbaa !3
  store ptr %2, ptr %8, align 8, !tbaa !3
  store ptr %3, ptr %9, align 8, !tbaa !3
  call void @llvm.lifetime.start.p0(i64 8, ptr %10) #3
  call void @llvm.lifetime.start.p0(i64 8, ptr %11) #3
  call void @llvm.lifetime.start.p0(i64 8, ptr %12) #3
  call void @llvm.lifetime.start.p0(i64 8, ptr %13) #3
  %23 = load ptr, ptr %9, align 8, !tbaa !3
  %24 = getelementptr inbounds nuw %struct.bignum_st, ptr %23, i32 0, i32 1
  %25 = load i32, ptr %24, align 8, !tbaa !14
  %26 = sext i32 %25 to i64
  store i64 %26, ptr %13, align 8, !tbaa !15
  call void @llvm.lifetime.start.p0(i64 128, ptr %14) #3
  call void @llvm.lifetime.start.p0(i64 8, ptr %15) #3
  call void @llvm.lifetime.start.p0(i64 8, ptr %16) #3
  call void @llvm.lifetime.start.p0(i64 8, ptr %17) #3
  call void @llvm.lifetime.start.p0(i64 8, ptr %18) #3
  call void @llvm.lifetime.start.p0(i64 8, ptr %19) #3
  %27 = getelementptr inbounds [16 x i64], ptr %14, i64 0, i64 0
  store ptr %27, ptr %19, align 8, !tbaa !17
  call void @llvm.lifetime.start.p0(i64 8, ptr %20) #3
  call void @llvm.lifetime.start.p0(i64 8, ptr %21) #3
  %28 = load ptr, ptr %6, align 8, !tbaa !3
  %29 = load i64, ptr %13, align 8, !tbaa !15
  %30 = trunc i64 %29 to i32
  %31 = call ptr @bn_wexpand(ptr noundef %28, i32 noundef %30)
  %32 = icmp eq ptr %31, null
  br i1 %32, label %33, label %34

33:                                               ; preds = %4
  store i32 0, ptr %5, align 4
  store i32 1, ptr %22, align 4
  br label %206

34:                                               ; preds = %4
  %35 = load i64, ptr %13, align 8, !tbaa !15
  %36 = icmp ugt i64 %35, 16
  br i1 %36, label %37, label %45

37:                                               ; preds = %34
  %38 = load i64, ptr %13, align 8, !tbaa !15
  %39 = mul i64 %38, 8
  %40 = call noalias ptr @CRYPTO_malloc(i64 noundef %39, ptr noundef @.str, i32 noundef 66)
  store ptr %40, ptr %19, align 8, !tbaa !17
  %41 = load ptr, ptr %19, align 8, !tbaa !17
  %42 = icmp eq ptr %41, null
  br i1 %42, label %43, label %44

43:                                               ; preds = %37
  store i32 0, ptr %5, align 4
  store i32 1, ptr %22, align 4
  br label %206

44:                                               ; preds = %37
  br label %45

45:                                               ; preds = %44, %34
  %46 = load ptr, ptr %7, align 8, !tbaa !3
  %47 = getelementptr inbounds nuw %struct.bignum_st, ptr %46, i32 0, i32 0
  %48 = load ptr, ptr %47, align 8, !tbaa !18
  %49 = icmp ne ptr %48, null
  br i1 %49, label %50, label %54

50:                                               ; preds = %45
  %51 = load ptr, ptr %7, align 8, !tbaa !3
  %52 = getelementptr inbounds nuw %struct.bignum_st, ptr %51, i32 0, i32 0
  %53 = load ptr, ptr %52, align 8, !tbaa !18
  br label %56

54:                                               ; preds = %45
  %55 = load ptr, ptr %19, align 8, !tbaa !17
  br label %56

56:                                               ; preds = %54, %50
  %57 = phi ptr [ %53, %50 ], [ %55, %54 ]
  store ptr %57, ptr %20, align 8, !tbaa !17
  %58 = load ptr, ptr %8, align 8, !tbaa !3
  %59 = getelementptr inbounds nuw %struct.bignum_st, ptr %58, i32 0, i32 0
  %60 = load ptr, ptr %59, align 8, !tbaa !18
  %61 = icmp ne ptr %60, null
  br i1 %61, label %62, label %66

62:                                               ; preds = %56
  %63 = load ptr, ptr %8, align 8, !tbaa !3
  %64 = getelementptr inbounds nuw %struct.bignum_st, ptr %63, i32 0, i32 0
  %65 = load ptr, ptr %64, align 8, !tbaa !18
  br label %68

66:                                               ; preds = %56
  %67 = load ptr, ptr %19, align 8, !tbaa !17
  br label %68

68:                                               ; preds = %66, %62
  %69 = phi ptr [ %65, %62 ], [ %67, %66 ]
  store ptr %69, ptr %21, align 8, !tbaa !17
  store i64 0, ptr %10, align 8, !tbaa !15
  store i64 0, ptr %11, align 8, !tbaa !15
  store i64 0, ptr %12, align 8, !tbaa !15
  store i64 0, ptr %15, align 8, !tbaa !15
  br label %70

70:                                               ; preds = %74, %68
  %71 = load i64, ptr %10, align 8, !tbaa !15
  %72 = load i64, ptr %13, align 8, !tbaa !15
  %73 = icmp ult i64 %71, %72
  br i1 %73, label %74, label %147

74:                                               ; preds = %70
  %75 = load i64, ptr %10, align 8, !tbaa !15
  %76 = load ptr, ptr %7, align 8, !tbaa !3
  %77 = getelementptr inbounds nuw %struct.bignum_st, ptr %76, i32 0, i32 1
  %78 = load i32, ptr %77, align 8, !tbaa !14
  %79 = sext i32 %78 to i64
  %80 = sub i64 %75, %79
  %81 = lshr i64 %80, 63
  %82 = sub i64 0, %81
  store i64 %82, ptr %17, align 8, !tbaa !15
  %83 = load ptr, ptr %20, align 8, !tbaa !17
  %84 = load i64, ptr %11, align 8, !tbaa !15
  %85 = getelementptr inbounds nuw i64, ptr %83, i64 %84
  %86 = load i64, ptr %85, align 8, !tbaa !15
  %87 = load i64, ptr %17, align 8, !tbaa !15
  %88 = and i64 %86, %87
  %89 = load i64, ptr %15, align 8, !tbaa !15
  %90 = add i64 %88, %89
  %91 = and i64 %90, -1
  store i64 %91, ptr %16, align 8, !tbaa !15
  %92 = load i64, ptr %16, align 8, !tbaa !15
  %93 = load i64, ptr %15, align 8, !tbaa !15
  %94 = icmp ult i64 %92, %93
  %95 = zext i1 %94 to i32
  %96 = sext i32 %95 to i64
  store i64 %96, ptr %15, align 8, !tbaa !15
  %97 = load i64, ptr %10, align 8, !tbaa !15
  %98 = load ptr, ptr %8, align 8, !tbaa !3
  %99 = getelementptr inbounds nuw %struct.bignum_st, ptr %98, i32 0, i32 1
  %100 = load i32, ptr %99, align 8, !tbaa !14
  %101 = sext i32 %100 to i64
  %102 = sub i64 %97, %101
  %103 = lshr i64 %102, 63
  %104 = sub i64 0, %103
  store i64 %104, ptr %17, align 8, !tbaa !15
  %105 = load ptr, ptr %21, align 8, !tbaa !17
  %106 = load i64, ptr %12, align 8, !tbaa !15
  %107 = getelementptr inbounds nuw i64, ptr %105, i64 %106
  %108 = load i64, ptr %107, align 8, !tbaa !15
  %109 = load i64, ptr %17, align 8, !tbaa !15
  %110 = and i64 %108, %109
  %111 = load i64, ptr %16, align 8, !tbaa !15
  %112 = add i64 %110, %111
  %113 = and i64 %112, -1
  %114 = load ptr, ptr %19, align 8, !tbaa !17
  %115 = load i64, ptr %10, align 8, !tbaa !15
  %116 = getelementptr inbounds nuw i64, ptr %114, i64 %115
  store i64 %113, ptr %116, align 8, !tbaa !15
  %117 = load ptr, ptr %19, align 8, !tbaa !17
  %118 = load i64, ptr %10, align 8, !tbaa !15
  %119 = getelementptr inbounds nuw i64, ptr %117, i64 %118
  %120 = load i64, ptr %119, align 8, !tbaa !15
  %121 = load i64, ptr %16, align 8, !tbaa !15
  %122 = icmp ult i64 %120, %121
  %123 = zext i1 %122 to i32
  %124 = sext i32 %123 to i64
  %125 = load i64, ptr %15, align 8, !tbaa !15
  %126 = add i64 %125, %124
  store i64 %126, ptr %15, align 8, !tbaa !15
  %127 = load i64, ptr %10, align 8, !tbaa !15
  %128 = add i64 %127, 1
  store i64 %128, ptr %10, align 8, !tbaa !15
  %129 = load i64, ptr %10, align 8, !tbaa !15
  %130 = load ptr, ptr %7, align 8, !tbaa !3
  %131 = getelementptr inbounds nuw %struct.bignum_st, ptr %130, i32 0, i32 2
  %132 = load i32, ptr %131, align 4, !tbaa !19
  %133 = sext i32 %132 to i64
  %134 = sub i64 %129, %133
  %135 = lshr i64 %134, 63
  %136 = load i64, ptr %11, align 8, !tbaa !15
  %137 = add i64 %136, %135
  store i64 %137, ptr %11, align 8, !tbaa !15
  %138 = load i64, ptr %10, align 8, !tbaa !15
  %139 = load ptr, ptr %8, align 8, !tbaa !3
  %140 = getelementptr inbounds nuw %struct.bignum_st, ptr %139, i32 0, i32 2
  %141 = load i32, ptr %140, align 4, !tbaa !19
  %142 = sext i32 %141 to i64
  %143 = sub i64 %138, %142
  %144 = lshr i64 %143, 63
  %145 = load i64, ptr %12, align 8, !tbaa !15
  %146 = add i64 %145, %144
  store i64 %146, ptr %12, align 8, !tbaa !15
  br label %70, !llvm.loop !20

147:                                              ; preds = %70
  %148 = load ptr, ptr %6, align 8, !tbaa !3
  %149 = getelementptr inbounds nuw %struct.bignum_st, ptr %148, i32 0, i32 0
  %150 = load ptr, ptr %149, align 8, !tbaa !18
  store ptr %150, ptr %18, align 8, !tbaa !17
  %151 = load ptr, ptr %18, align 8, !tbaa !17
  %152 = load ptr, ptr %19, align 8, !tbaa !17
  %153 = load ptr, ptr %9, align 8, !tbaa !3
  %154 = getelementptr inbounds nuw %struct.bignum_st, ptr %153, i32 0, i32 0
  %155 = load ptr, ptr %154, align 8, !tbaa !18
  %156 = load i64, ptr %13, align 8, !tbaa !15
  %157 = trunc i64 %156 to i32
  %158 = call i64 @bn_sub_words(ptr noundef %151, ptr noundef %152, ptr noundef %155, i32 noundef %157)
  %159 = load i64, ptr %15, align 8, !tbaa !15
  %160 = sub i64 %159, %158
  store i64 %160, ptr %15, align 8, !tbaa !15
  store i64 0, ptr %10, align 8, !tbaa !15
  br label %161

161:                                              ; preds = %186, %147
  %162 = load i64, ptr %10, align 8, !tbaa !15
  %163 = load i64, ptr %13, align 8, !tbaa !15
  %164 = icmp ult i64 %162, %163
  br i1 %164, label %165, label %189

165:                                              ; preds = %161
  %166 = load i64, ptr %15, align 8, !tbaa !15
  %167 = load ptr, ptr %19, align 8, !tbaa !17
  %168 = load i64, ptr %10, align 8, !tbaa !15
  %169 = getelementptr inbounds nuw i64, ptr %167, i64 %168
  %170 = load i64, ptr %169, align 8, !tbaa !15
  %171 = and i64 %166, %170
  %172 = load i64, ptr %15, align 8, !tbaa !15
  %173 = xor i64 %172, -1
  %174 = load ptr, ptr %18, align 8, !tbaa !17
  %175 = load i64, ptr %10, align 8, !tbaa !15
  %176 = getelementptr inbounds nuw i64, ptr %174, i64 %175
  %177 = load i64, ptr %176, align 8, !tbaa !15
  %178 = and i64 %173, %177
  %179 = or i64 %171, %178
  %180 = load ptr, ptr %18, align 8, !tbaa !17
  %181 = load i64, ptr %10, align 8, !tbaa !15
  %182 = getelementptr inbounds nuw i64, ptr %180, i64 %181
  store i64 %179, ptr %182, align 8, !tbaa !15
  %183 = load ptr, ptr %19, align 8, !tbaa !17
  %184 = load i64, ptr %10, align 8, !tbaa !15
  %185 = getelementptr inbounds nuw i64, ptr %183, i64 %184
  store volatile i64 0, ptr %185, align 8, !tbaa !15
  br label %186

186:                                              ; preds = %165
  %187 = load i64, ptr %10, align 8, !tbaa !15
  %188 = add i64 %187, 1
  store i64 %188, ptr %10, align 8, !tbaa !15
  br label %161, !llvm.loop !22

189:                                              ; preds = %161
  %190 = load i64, ptr %13, align 8, !tbaa !15
  %191 = trunc i64 %190 to i32
  %192 = load ptr, ptr %6, align 8, !tbaa !3
  %193 = getelementptr inbounds nuw %struct.bignum_st, ptr %192, i32 0, i32 1
  store i32 %191, ptr %193, align 8, !tbaa !14
  %194 = load ptr, ptr %6, align 8, !tbaa !3
  %195 = getelementptr inbounds nuw %struct.bignum_st, ptr %194, i32 0, i32 4
  %196 = load i32, ptr %195, align 4, !tbaa !23
  %197 = or i32 %196, 0
  store i32 %197, ptr %195, align 4, !tbaa !23
  %198 = load ptr, ptr %6, align 8, !tbaa !3
  %199 = getelementptr inbounds nuw %struct.bignum_st, ptr %198, i32 0, i32 3
  store i32 0, ptr %199, align 8, !tbaa !10
  %200 = load ptr, ptr %19, align 8, !tbaa !17
  %201 = getelementptr inbounds [16 x i64], ptr %14, i64 0, i64 0
  %202 = icmp ne ptr %200, %201
  br i1 %202, label %203, label %205

203:                                              ; preds = %189
  %204 = load ptr, ptr %19, align 8, !tbaa !17
  call void @CRYPTO_free(ptr noundef %204, ptr noundef @.str, i32 noundef 98)
  br label %205

205:                                              ; preds = %203, %189
  store i32 1, ptr %5, align 4
  store i32 1, ptr %22, align 4
  br label %206

206:                                              ; preds = %205, %43, %33
  call void @llvm.lifetime.end.p0(i64 8, ptr %21) #3
  call void @llvm.lifetime.end.p0(i64 8, ptr %20) #3
  call void @llvm.lifetime.end.p0(i64 8, ptr %19) #3
  call void @llvm.lifetime.end.p0(i64 8, ptr %18) #3
  call void @llvm.lifetime.end.p0(i64 8, ptr %17) #3
  call void @llvm.lifetime.end.p0(i64 8, ptr %16) #3
  call void @llvm.lifetime.end.p0(i64 8, ptr %15) #3
  call void @llvm.lifetime.end.p0(i64 128, ptr %14) #3
  call void @llvm.lifetime.end.p0(i64 8, ptr %13) #3
  call void @llvm.lifetime.end.p0(i64 8, ptr %12) #3
  call void @llvm.lifetime.end.p0(i64 8, ptr %11) #3
  call void @llvm.lifetime.end.p0(i64 8, ptr %10) #3
  %207 = load i32, ptr %5, align 4
  ret i32 %207
}