; Function Attrs: nounwind uwtable
define range(i32 0, 2) i32 @bn_mod_add_fixed_top(ptr noundef %0, ptr noundef readonly captures(none) %1, ptr noundef readonly captures(none) %2, ptr noundef readonly captures(none) %3) local_unnamed_addr #0 {
  %5 = alloca [16 x i64], align 16
  %6 = getelementptr inbounds nuw i8, ptr %3, i64 8
  %7 = load i32, ptr %6, align 8, !tbaa !11
  %8 = sext i32 %7 to i64
  call void @llvm.lifetime.start.p0(i64 128, ptr nonnull %5) #4
  %9 = tail call ptr @bn_wexpand(ptr noundef %0, i32 noundef %7) #4
  %10 = icmp eq ptr %9, null
  br i1 %10, label %74, label %11

11:                                               ; preds = %4
  %12 = icmp ugt i32 %7, 16
  br i1 %12, label %13, label %17

13:                                               ; preds = %11
  %14 = shl nsw i64 %8, 3
  %15 = tail call noalias ptr @CRYPTO_malloc(i64 noundef %14, ptr noundef nonnull @.str, i32 noundef 66) #4
  %16 = icmp eq ptr %15, null
  br i1 %16, label %74, label %17

17:                                               ; preds = %13, %11
  %.067 = phi ptr [ %15, %13 ], [ %5, %11 ]
  %18 = load ptr, ptr %1, align 8, !tbaa !12
  %.not = icmp eq ptr %18, null
  %.067. = select i1 %.not, ptr %.067, ptr %18
  %19 = load ptr, ptr %2, align 8, !tbaa !12
  %.not76 = icmp eq ptr %19, null
  %20 = select i1 %.not76, ptr %.067, ptr %19
  %.not87 = icmp eq i32 %7, 0
  br i1 %.not87, label %._crit_edge, label %.lr.ph

.lr.ph:                                           ; preds = %17
  %21 = getelementptr inbounds nuw i8, ptr %1, i64 8
  %22 = load i32, ptr %21, align 8, !tbaa !11
  %23 = sext i32 %22 to i64
  %24 = getelementptr inbounds nuw i8, ptr %2, i64 8
  %25 = load i32, ptr %24, align 8, !tbaa !11
  %26 = sext i32 %25 to i64
  %27 = getelementptr inbounds nuw i8, ptr %1, i64 12
  %28 = load i32, ptr %27, align 4, !tbaa !13
  %29 = sext i32 %28 to i64
  %30 = getelementptr inbounds nuw i8, ptr %2, i64 12
  %31 = load i32, ptr %30, align 4, !tbaa !13
  %32 = sext i32 %31 to i64
  br label %33

33:                                               ; preds = %.lr.ph, %33
  %.06682 = phi i64 [ 0, %.lr.ph ], [ %50, %33 ]
  %.06881 = phi i64 [ 0, %.lr.ph ], [ %53, %33 ]
  %.06980 = phi i64 [ 0, %.lr.ph ], [ %56, %33 ]
  %.07079 = phi i64 [ 0, %.lr.ph ], [ %49, %33 ]
  %34 = sub i64 %.06682, %23
  %35 = getelementptr inbounds nuw i64, ptr %.067., i64 %.06881
  %36 = load i64, ptr %35, align 8, !tbaa !14
  %isneg = icmp slt i64 %34, 0
  %37 = select i1 %isneg, i64 %36, i64 0
  %38 = add i64 %37, %.07079
  %39 = icmp ult i64 %38, %.07079
  %40 = zext i1 %39 to i64
  %41 = sub i64 %.06682, %26
  %42 = getelementptr inbounds nuw i64, ptr %20, i64 %.06980
  %43 = load i64, ptr %42, align 8, !tbaa !14
  %isneg78 = icmp slt i64 %41, 0
  %44 = select i1 %isneg78, i64 %43, i64 0
  %45 = add i64 %44, %38
  %46 = getelementptr inbounds nuw i64, ptr %.067, i64 %.06682
  store i64 %45, ptr %46, align 8, !tbaa !14
  %47 = icmp ult i64 %45, %38
  %48 = zext i1 %47 to i64
  %49 = add nuw nsw i64 %48, %40
  %50 = add nuw i64 %.06682, 1
  %51 = sub i64 %50, %29
  %52 = lshr i64 %51, 63
  %53 = add i64 %52, %.06881
  %54 = sub i64 %50, %32
  %55 = lshr i64 %54, 63
  %56 = add i64 %55, %.06980
  %exitcond.not = icmp eq i64 %50, %8
  br i1 %exitcond.not, label %._crit_edge, label %33, !llvm.loop !16

._crit_edge:                                      ; preds = %33, %17
  %.070.lcssa = phi i64 [ 0, %17 ], [ %49, %33 ]
  %57 = load ptr, ptr %0, align 8, !tbaa !12
  %58 = load ptr, ptr %3, align 8, !tbaa !12
  %59 = call i64 @bn_sub_words(ptr noundef %57, ptr noundef nonnull %.067, ptr noundef %58, i32 noundef %7) #4
  %60 = sub i64 %.070.lcssa, %59
  br i1 %.not87, label %._crit_edge86, label %.lr.ph85

.lr.ph85:                                         ; preds = %._crit_edge
  %61 = xor i64 %60, -1
  br label %62

62:                                               ; preds = %.lr.ph85, %62
  %.183 = phi i64 [ 0, %.lr.ph85 ], [ %70, %62 ]
  %63 = getelementptr inbounds nuw i64, ptr %.067, i64 %.183
  %64 = load i64, ptr %63, align 8, !tbaa !14
  %65 = and i64 %64, %60
  %66 = getelementptr inbounds nuw i64, ptr %57, i64 %.183
  %67 = load i64, ptr %66, align 8, !tbaa !14
  %68 = and i64 %67, %61
  %69 = or i64 %68, %65
  store i64 %69, ptr %66, align 8, !tbaa !14
  store volatile i64 0, ptr %63, align 8, !tbaa !14
  %70 = add nuw i64 %.183, 1
  %exitcond89.not = icmp eq i64 %70, %8
  br i1 %exitcond89.not, label %._crit_edge86, label %62, !llvm.loop !18

._crit_edge86:                                    ; preds = %62, %._crit_edge
  %71 = getelementptr inbounds nuw i8, ptr %0, i64 8
  store i32 %7, ptr %71, align 8, !tbaa !11
  %72 = getelementptr inbounds nuw i8, ptr %0, i64 16
  store i32 0, ptr %72, align 8, !tbaa !3
  %.not77 = icmp eq ptr %.067, %5
  br i1 %.not77, label %74, label %73

73:                                               ; preds = %._crit_edge86
  call void @CRYPTO_free(ptr noundef nonnull %.067, ptr noundef nonnull @.str, i32 noundef 98) #4
  br label %74

74:                                               ; preds = %._crit_edge86, %73, %13, %4
  %.0 = phi i32 [ 0, %4 ], [ 0, %13 ], [ 1, %73 ], [ 1, %._crit_edge86 ]
  call void @llvm.lifetime.end.p0(i64 128, ptr nonnull %5) #4
  ret i32 %.0
}